target datalayout = "e-m:e-p270:32:32-p271:32:32-p272:64:64-i64:64-i128:128-f80:128-n8:16:32:64-S128"
target triple = "x86_64-pc-linux-gnu"

%struct.AVRational = type { i32, i32 }
%struct.AVFormatContext = type { ptr, ptr, ptr, ptr, ptr, i32, i32, ptr, i32, ptr, i32, ptr, ptr, i64, i64, i64, i32, i32, i32, i64, i64, ptr, i32, i32, ptr, i32, i32, i32, i32, ptr, i64, i32, i32, %struct.AVIOInterruptCB, i32, i32, i32, i32, i64, i32, i32, i32, i32, i32, i32, i32, i32, i32, i32, i32, i32, i64, i32, i32, i32, i32, i32, ptr, ptr, ptr, ptr, i32, ptr, ptr, ptr, ptr, i32, ptr, ptr, i64, ptr, ptr, ptr, i64 }
%struct.AVIOInterruptCB = type { ptr, ptr }
%struct.AVIContext = type { ptr, ptr, i64, i64, i64, i64, i32, i32, i32, i32, i32 }
%struct.AVStream = type { ptr, i32, i32, ptr, ptr, %struct.AVRational, i64, i64, i64, i32, i32, %struct.AVRational, ptr, %struct.AVRational, %struct.AVPacket, i32, %struct.AVRational, i32 }
%struct.AVPacket = type { ptr, i64, i64, ptr, i32, i32, i32, ptr, i32, i64, i64, ptr, ptr, %struct.AVRational }
%struct.AVIStream = type { i64, i64, i32, i32, i32, i32, i64, %struct.AVIIndex, i64, [256 x i32], [256 x i32], i64 }
%struct.AVIIndex = type { i64, i64, i32, i32, i32, ptr }
%struct.AVIIentry = type { [4 x i8], i32, i32, i32 }

; Function Attrs: alwaysinline nounwind uwtable
define internal i64 @avio_tell(ptr noundef %0) #4 {
  %2 = alloca ptr, align 8
  store ptr %0, ptr %2, align 8, !tbaa !29
  %3 = load ptr, ptr %2, align 8, !tbaa !29
  %4 = call i64 @avio_seek(ptr noundef %3, i64 noundef 0, i32 noundef 1)
  ret i64 %4
}

; Function Attrs: nounwind uwtable
define internal i32 @avi_add_ientry(ptr noundef %0, i32 noundef %1, ptr noundef %2, i32 noundef %3, i32 noundef %4) #0 {
  %6 = alloca i32, align 4
  %7 = alloca ptr, align 8
  %8 = alloca i32, align 4
  %9 = alloca ptr, align 8
  %10 = alloca i32, align 4
  %11 = alloca i32, align 4
  %12 = alloca ptr, align 8
  %13 = alloca ptr, align 8
  %14 = alloca ptr, align 8
  %15 = alloca ptr, align 8
  %16 = alloca i32, align 4
  %17 = alloca i32, align 4
  %18 = alloca i32, align 4
  store ptr %0, ptr %7, align 8, !tbaa !4
  store i32 %1, ptr %8, align 4, !tbaa !43
  store ptr %2, ptr %9, align 8, !tbaa !94
  store i32 %3, ptr %10, align 4, !tbaa !43
  store i32 %4, ptr %11, align 4, !tbaa !43
  call void @llvm.lifetime.start.p0(i64 8, ptr %12) #12
  %19 = load ptr, ptr %7, align 8, !tbaa !4
  %20 = getelementptr inbounds nuw %struct.AVFormatContext, ptr %19, i32 0, i32 3
  %21 = load ptr, ptr %20, align 8, !tbaa !9
  store ptr %21, ptr %12, align 8, !tbaa !26
  call void @llvm.lifetime.start.p0(i64 8, ptr %13) #12
  %22 = load ptr, ptr %7, align 8, !tbaa !4
  %23 = getelementptr inbounds nuw %struct.AVFormatContext, ptr %22, i32 0, i32 4
  %24 = load ptr, ptr %23, align 8, !tbaa !28
  store ptr %24, ptr %13, align 8, !tbaa !29
  call void @llvm.lifetime.start.p0(i64 8, ptr %14) #12
  %25 = load ptr, ptr %7, align 8, !tbaa !4
  %26 = getelementptr inbounds nuw %struct.AVFormatContext, ptr %25, i32 0, i32 7
  %27 = load ptr, ptr %26, align 8, !tbaa !44
  %28 = load i32, ptr %8, align 4, !tbaa !43
  %29 = sext i32 %28 to i64
  %30 = getelementptr inbounds ptr, ptr %27, i64 %29
  %31 = load ptr, ptr %30, align 8, !tbaa !31
  %32 = getelementptr inbounds nuw %struct.AVStream, ptr %31, i32 0, i32 4
  %33 = load ptr, ptr %32, align 8, !tbaa !45
  store ptr %33, ptr %14, align 8, !tbaa !77
  call void @llvm.lifetime.start.p0(i64 8, ptr %15) #12
  %34 = load ptr, ptr %14, align 8, !tbaa !77
  %35 = getelementptr inbounds nuw %struct.AVIStream, ptr %34, i32 0, i32 7
  store ptr %35, ptr %15, align 8, !tbaa !132
  call void @llvm.lifetime.start.p0(i64 4, ptr %16) #12
  %36 = load ptr, ptr %15, align 8, !tbaa !132
  %37 = getelementptr inbounds nuw %struct.AVIIndex, ptr %36, i32 0, i32 2
  %38 = load i32, ptr %37, align 8, !tbaa !134
  %39 = sdiv i32 %38, 16384
  store i32 %39, ptr %16, align 4, !tbaa !43
  call void @llvm.lifetime.start.p0(i64 4, ptr %17) #12
  %40 = load ptr, ptr %15, align 8, !tbaa !132
  %41 = getelementptr inbounds nuw %struct.AVIIndex, ptr %40, i32 0, i32 2
  %42 = load i32, ptr %41, align 8, !tbaa !134
  %43 = srem i32 %42, 16384
  store i32 %43, ptr %17, align 4, !tbaa !43
  %44 = load ptr, ptr %15, align 8, !tbaa !132
  %45 = getelementptr inbounds nuw %struct.AVIIndex, ptr %44, i32 0, i32 3
  %46 = load i32, ptr %45, align 4, !tbaa !135
  %47 = load ptr, ptr %15, align 8, !tbaa !132
  %48 = getelementptr inbounds nuw %struct.AVIIndex, ptr %47, i32 0, i32 2
  %49 = load i32, ptr %48, align 8, !tbaa !134
  %50 = icmp sle i32 %46, %49
  br i1 %50, label %51, label %92

51:                                               ; preds = %5
  %52 = load ptr, ptr %15, align 8, !tbaa !132
  %53 = getelementptr inbounds nuw %struct.AVIIndex, ptr %52, i32 0, i32 5
  %54 = load ptr, ptr %53, align 8, !tbaa !136
  %55 = load i32, ptr %16, align 4, !tbaa !43
  %56 = add nsw i32 %55, 1
  %57 = sext i32 %56 to i64
  %58 = call ptr @av_realloc_f(ptr noundef %54, i64 noundef 8, i64 noundef %57)
  %59 = load ptr, ptr %15, align 8, !tbaa !132
  %60 = getelementptr inbounds nuw %struct.AVIIndex, ptr %59, i32 0, i32 5
  store ptr %58, ptr %60, align 8, !tbaa !136
  %61 = load ptr, ptr %15, align 8, !tbaa !132
  %62 = getelementptr inbounds nuw %struct.AVIIndex, ptr %61, i32 0, i32 5
  %63 = load ptr, ptr %62, align 8, !tbaa !136
  %64 = icmp ne ptr %63, null
  br i1 %64, label %70, label %65

65:                                               ; preds = %51
  %66 = load ptr, ptr %15, align 8, !tbaa !132
  %67 = getelementptr inbounds nuw %struct.AVIIndex, ptr %66, i32 0, i32 3
  store i32 0, ptr %67, align 4, !tbaa !135
  %68 = load ptr, ptr %15, align 8, !tbaa !132
  %69 = getelementptr inbounds nuw %struct.AVIIndex, ptr %68, i32 0, i32 2
  store i32 0, ptr %69, align 8, !tbaa !134
  store i32 -12, ptr %6, align 4
  store i32 1, ptr %18, align 4
  br label %184

70:                                               ; preds = %51
  %71 = call noalias ptr @av_malloc(i64 noundef 262144)
  %72 = load ptr, ptr %15, align 8, !tbaa !132
  %73 = getelementptr inbounds nuw %struct.AVIIndex, ptr %72, i32 0, i32 5
  %74 = load ptr, ptr %73, align 8, !tbaa !136
  %75 = load i32, ptr %16, align 4, !tbaa !43
  %76 = sext i32 %75 to i64
  %77 = getelementptr inbounds ptr, ptr %74, i64 %76
  store ptr %71, ptr %77, align 8, !tbaa !137
  %78 = load ptr, ptr %15, align 8, !tbaa !132
  %79 = getelementptr inbounds nuw %struct.AVIIndex, ptr %78, i32 0, i32 5
  %80 = load ptr, ptr %79, align 8, !tbaa !136
  %81 = load i32, ptr %16, align 4, !tbaa !43
  %82 = sext i32 %81 to i64
  %83 = getelementptr inbounds ptr, ptr %80, i64 %82
  %84 = load ptr, ptr %83, align 8, !tbaa !137
  %85 = icmp ne ptr %84, null
  br i1 %85, label %87, label %86

86:                                               ; preds = %70
  store i32 -12, ptr %6, align 4
  store i32 1, ptr %18, align 4
  br label %184

87:                                               ; preds = %70
  %88 = load ptr, ptr %15, align 8, !tbaa !132
  %89 = getelementptr inbounds nuw %struct.AVIIndex, ptr %88, i32 0, i32 3
  %90 = load i32, ptr %89, align 4, !tbaa !135
  %91 = add nsw i32 %90, 16384
  store i32 %91, ptr %89, align 4, !tbaa !135
  br label %92

92:                                               ; preds = %87, %5
  %93 = load ptr, ptr %9, align 8, !tbaa !94
  %94 = icmp ne ptr %93, null
  br i1 %94, label %95, label %109

95:                                               ; preds = %92
  %96 = load ptr, ptr %15, align 8, !tbaa !132
  %97 = getelementptr inbounds nuw %struct.AVIIndex, ptr %96, i32 0, i32 5
  %98 = load ptr, ptr %97, align 8, !tbaa !136
  %99 = load i32, ptr %16, align 4, !tbaa !43
  %100 = sext i32 %99 to i64
  %101 = getelementptr inbounds ptr, ptr %98, i64 %100
  %102 = load ptr, ptr %101, align 8, !tbaa !137
  %103 = load i32, ptr %17, align 4, !tbaa !43
  %104 = sext i32 %103 to i64
  %105 = getelementptr inbounds %struct.AVIIentry, ptr %102, i64 %104
  %106 = getelementptr inbounds nuw %struct.AVIIentry, ptr %105, i32 0, i32 0
  %107 = getelementptr inbounds [4 x i8], ptr %106, i64 0, i64 0
  %108 = load ptr, ptr %9, align 8, !tbaa !94
  call void @llvm.memcpy.p0.p0.i64(ptr align 4 %107, ptr align 1 %108, i64 4, i1 false)
  br label %122

109:                                              ; preds = %92
  %110 = load ptr, ptr %15, align 8, !tbaa !132
  %111 = getelementptr inbounds nuw %struct.AVIIndex, ptr %110, i32 0, i32 5
  %112 = load ptr, ptr %111, align 8, !tbaa !136
  %113 = load i32, ptr %16, align 4, !tbaa !43
  %114 = sext i32 %113 to i64
  %115 = getelementptr inbounds ptr, ptr %112, i64 %114
  %116 = load ptr, ptr %115, align 8, !tbaa !137
  %117 = load i32, ptr %17, align 4, !tbaa !43
  %118 = sext i32 %117 to i64
  %119 = getelementptr inbounds %struct.AVIIentry, ptr %116, i64 %118
  %120 = getelementptr inbounds nuw %struct.AVIIentry, ptr %119, i32 0, i32 0
  %121 = getelementptr inbounds [4 x i8], ptr %120, i64 0, i64 0
  call void @llvm.memset.p0.i64(ptr align 4 %121, i8 0, i64 4, i1 false)
  br label %122

122:                                              ; preds = %109, %95
  %123 = load i32, ptr %10, align 4, !tbaa !43
  %124 = load ptr, ptr %15, align 8, !tbaa !132
  %125 = getelementptr inbounds nuw %struct.AVIIndex, ptr %124, i32 0, i32 5
  %126 = load ptr, ptr %125, align 8, !tbaa !136
  %127 = load i32, ptr %16, align 4, !tbaa !43
  %128 = sext i32 %127 to i64
  %129 = getelementptr inbounds ptr, ptr %126, i64 %128
  %130 = load ptr, ptr %129, align 8, !tbaa !137
  %131 = load i32, ptr %17, align 4, !tbaa !43
  %132 = sext i32 %131 to i64
  %133 = getelementptr inbounds %struct.AVIIentry, ptr %130, i64 %132
  %134 = getelementptr inbounds nuw %struct.AVIIentry, ptr %133, i32 0, i32 1
  store i32 %123, ptr %134, align 4, !tbaa !139
  %135 = load ptr, ptr %13, align 8, !tbaa !29
  %136 = call i64 @avio_tell(ptr noundef %135)
  %137 = load ptr, ptr %12, align 8, !tbaa !26
  %138 = getelementptr inbounds nuw %struct.AVIContext, ptr %137, i32 0, i32 3
  %139 = load i64, ptr %138, align 8, !tbaa !102
  %140 = sub nsw i64 %136, %139
  %141 = trunc i64 %140 to i32
  %142 = load ptr, ptr %15, align 8, !tbaa !132
  %143 = getelementptr inbounds nuw %struct.AVIIndex, ptr %142, i32 0, i32 5
  %144 = load ptr, ptr %143, align 8, !tbaa !136
  %145 = load i32, ptr %16, align 4, !tbaa !43
  %146 = sext i32 %145 to i64
  %147 = getelementptr inbounds ptr, ptr %144, i64 %146
  %148 = load ptr, ptr %147, align 8, !tbaa !137
  %149 = load i32, ptr %17, align 4, !tbaa !43
  %150 = sext i32 %149 to i64
  %151 = getelementptr inbounds %struct.AVIIentry, ptr %148, i64 %150
  %152 = getelementptr inbounds nuw %struct.AVIIentry, ptr %151, i32 0, i32 2
  store i32 %141, ptr %152, align 4, !tbaa !141
  %153 = load i32, ptr %11, align 4, !tbaa !43
  %154 = load ptr, ptr %15, align 8, !tbaa !132
  %155 = getelementptr inbounds nuw %struct.AVIIndex, ptr %154, i32 0, i32 5
  %156 = load ptr, ptr %155, align 8, !tbaa !136
  %157 = load i32, ptr %16, align 4, !tbaa !43
  %158 = sext i32 %157 to i64
  %159 = getelementptr inbounds ptr, ptr %156, i64 %158
  %160 = load ptr, ptr %159, align 8, !tbaa !137
  %161 = load i32, ptr %17, align 4, !tbaa !43
  %162 = sext i32 %161 to i64
  %163 = getelementptr inbounds %struct.AVIIentry, ptr %160, i64 %162
  %164 = getelementptr inbounds nuw %struct.AVIIentry, ptr %163, i32 0, i32 3
  store i32 %153, ptr %164, align 4, !tbaa !142
  %165 = load ptr, ptr %14, align 8, !tbaa !77
  %166 = getelementptr inbounds nuw %struct.AVIStream, ptr %165, i32 0, i32 4
  %167 = load i32, ptr %166, align 8, !tbaa !115
  %168 = load i32, ptr %11, align 4, !tbaa !43
  %169 = icmp ugt i32 %167, %168
  br i1 %169, label %170, label %174

170:                                              ; preds = %122
  %171 = load ptr, ptr %14, align 8, !tbaa !77
  %172 = getelementptr inbounds nuw %struct.AVIStream, ptr %171, i32 0, i32 4
  %173 = load i32, ptr %172, align 8, !tbaa !115
  br label %176

174:                                              ; preds = %122
  %175 = load i32, ptr %11, align 4, !tbaa !43
  br label %176

176:                                              ; preds = %174, %170
  %177 = phi i32 [ %173, %170 ], [ %175, %174 ]
  %178 = load ptr, ptr %14, align 8, !tbaa !77
  %179 = getelementptr inbounds nuw %struct.AVIStream, ptr %178, i32 0, i32 4
  store i32 %177, ptr %179, align 8, !tbaa !115
  %180 = load ptr, ptr %15, align 8, !tbaa !132
  %181 = getelementptr inbounds nuw %struct.AVIIndex, ptr %180, i32 0, i32 2
  %182 = load i32, ptr %181, align 8, !tbaa !134
  %183 = add nsw i32 %182, 1
  store i32 %183, ptr %181, align 8, !tbaa !134
  store i32 0, ptr %6, align 4
  store i32 1, ptr %18, align 4
  br label %184

184:                                              ; preds = %176, %86, %65
  call void @llvm.lifetime.end.p0(i64 4, ptr %17) #12
  call void @llvm.lifetime.end.p0(i64 4, ptr %16) #12
  call void @llvm.lifetime.end.p0(i64 8, ptr %15) #12
  call void @llvm.lifetime.end.p0(i64 8, ptr %14) #12
  call void @llvm.lifetime.end.p0(i64 8, ptr %13) #12
  call void @llvm.lifetime.end.p0(i64 8, ptr %12) #12
  %185 = load i32, ptr %6, align 4
  ret i32 %185
}