; Function Attrs: nounwind uwtable
define internal fastcc range(i32 -12, 1) i32 @avi_add_ientry(ptr noundef readonly captures(none) %0, i32 noundef %1, ptr noundef readonly captures(address_is_null) %2, i32 noundef range(i32 0, 257) %3, i32 noundef %4) unnamed_addr #0 {
  %6 = getelementptr inbounds nuw i8, ptr %0, i64 24
  %7 = load ptr, ptr %6, align 8, !tbaa !4
  %8 = getelementptr inbounds nuw i8, ptr %0, i64 32
  %9 = load ptr, ptr %8, align 8, !tbaa !24
  %10 = getelementptr inbounds nuw i8, ptr %0, i64 48
  %11 = load ptr, ptr %10, align 8, !tbaa !36
  %12 = sext i32 %1 to i64
  %13 = getelementptr inbounds ptr, ptr %11, i64 %12
  %14 = load ptr, ptr %13, align 8, !tbaa !37
  %15 = getelementptr inbounds nuw i8, ptr %14, i64 24
  %16 = load ptr, ptr %15, align 8, !tbaa !39
  %17 = getelementptr inbounds nuw i8, ptr %16, i64 56
  %18 = load i32, ptr %17, align 8, !tbaa !115
  %19 = sdiv i32 %18, 16384
  %20 = srem i32 %18, 16384
  %21 = getelementptr inbounds nuw i8, ptr %16, i64 60
  %22 = load i32, ptr %21, align 4, !tbaa !116
  %.not = icmp sgt i32 %22, %18
  br i1 %.not, label %38, label %23

23:                                               ; preds = %5
  %24 = getelementptr inbounds nuw i8, ptr %16, i64 72
  %25 = load ptr, ptr %24, align 8, !tbaa !117
  %26 = add nsw i32 %19, 1
  %27 = sext i32 %26 to i64
  %28 = tail call ptr @av_realloc_f(ptr noundef %25, i64 noundef 8, i64 noundef %27) #10
  store ptr %28, ptr %24, align 8, !tbaa !117
  %.not50 = icmp eq ptr %28, null
  br i1 %.not50, label %29, label %30

29:                                               ; preds = %23
  store i32 0, ptr %21, align 4, !tbaa !116
  br label %.sink.split

30:                                               ; preds = %23
  %31 = tail call noalias ptr @av_malloc(i64 noundef 262144) #10
  %32 = load ptr, ptr %24, align 8, !tbaa !117
  %33 = sext i32 %19 to i64
  %34 = getelementptr inbounds ptr, ptr %32, i64 %33
  store ptr %31, ptr %34, align 8, !tbaa !118
  %.not51 = icmp eq ptr %31, null
  br i1 %.not51, label %68, label %35

35:                                               ; preds = %30
  %36 = load i32, ptr %21, align 4, !tbaa !116
  %37 = add nsw i32 %36, 16384
  store i32 %37, ptr %21, align 4, !tbaa !116
  br label %38

38:                                               ; preds = %35, %5
  %.not52 = icmp eq ptr %2, null
  %39 = getelementptr inbounds nuw i8, ptr %16, i64 72
  %40 = load ptr, ptr %39, align 8, !tbaa !117
  %41 = sext i32 %19 to i64
  %42 = getelementptr inbounds ptr, ptr %40, i64 %41
  %43 = load ptr, ptr %42, align 8, !tbaa !118
  %44 = sext i32 %20 to i64
  %45 = getelementptr inbounds %struct.AVIIentry, ptr %43, i64 %44
  br i1 %.not52, label %48, label %46

46:                                               ; preds = %38
  %47 = load i32, ptr %2, align 1
  br label %48

48:                                               ; preds = %38, %46
  %.sink = phi i32 [ %47, %46 ], [ 0, %38 ]
  store i32 %.sink, ptr %45, align 4
  %49 = getelementptr inbounds nuw i8, ptr %16, i64 72
  %50 = load ptr, ptr %49, align 8, !tbaa !117
  %51 = getelementptr inbounds ptr, ptr %50, i64 %41
  %52 = load ptr, ptr %51, align 8, !tbaa !118
  %53 = getelementptr inbounds %struct.AVIIentry, ptr %52, i64 %44, i32 1
  store i32 %3, ptr %53, align 4, !tbaa !120
  %54 = tail call i64 @avio_seek(ptr noundef %9, i64 noundef 0, i32 noundef 1) #10
  %55 = getelementptr inbounds nuw i8, ptr %7, i64 24
  %56 = load i64, ptr %55, align 8, !tbaa !91
  %57 = sub nsw i64 %54, %56
  %58 = trunc i64 %57 to i32
  %59 = load ptr, ptr %49, align 8, !tbaa !117
  %60 = getelementptr inbounds ptr, ptr %59, i64 %41
  %61 = load ptr, ptr %60, align 8, !tbaa !118
  %62 = getelementptr inbounds %struct.AVIIentry, ptr %61, i64 %44, i32 2
  store i32 %58, ptr %62, align 4, !tbaa !122
  %63 = getelementptr inbounds %struct.AVIIentry, ptr %61, i64 %44, i32 3
  store i32 %4, ptr %63, align 4, !tbaa !123
  %64 = getelementptr inbounds nuw i8, ptr %16, i64 24
  %65 = load i32, ptr %64, align 8, !tbaa !105
  %. = tail call i32 @llvm.umax.i32(i32 %65, i32 %4)
  store i32 %., ptr %64, align 8, !tbaa !105
  %66 = load i32, ptr %17, align 8, !tbaa !115
  %67 = add nsw i32 %66, 1
  br label %.sink.split

.sink.split:                                      ; preds = %29, %48
  %.sink54 = phi i32 [ %67, %48 ], [ 0, %29 ]
  %.0.ph = phi i32 [ 0, %48 ], [ -12, %29 ]
  store i32 %.sink54, ptr %17, align 8, !tbaa !115
  br label %68

68:                                               ; preds = %.sink.split, %30
  %.0 = phi i32 [ -12, %30 ], [ %.0.ph, %.sink.split ]
  ret i32 %.0
}